target datalayout = "e-m:e-p270:32:32-p271:32:32-p272:64:64-i64:64-i128:128-f80:128-n8:16:32:64-S128"
target triple = "x86_64-pc-linux-gnu"

%"class.std::__cxx11::basic_string" = type { %"struct.std::__cxx11::basic_string<char>::_Alloc_hider", i64, %union.anon }
%"struct.std::__cxx11::basic_string<char>::_Alloc_hider" = type { ptr }
%union.anon = type { i64, [8 x i8] }

@.str.47 = private unnamed_addr constant [6 x i8] c"%010d\00", align 1
@.str.48 = private unnamed_addr constant [6 x i8] c"%s#%s\00", align 1

; Function Attrs: mustprogress nounwind uwtable
define available_externally noundef ptr @_ZNKSt7__cxx1112basic_stringIcSt11char_traitsIcESaIcEE7_M_dataEv(ptr noundef nonnull align 8 dereferenceable(32) %0) #3 align 2 {
  %2 = alloca ptr, align 8
  store ptr %0, ptr %2, align 8, !tbaa !29
  %3 = load ptr, ptr %2, align 8
  %4 = getelementptr inbounds nuw %"class.std::__cxx11::basic_string", ptr %3, i32 0, i32 0
  %5 = getelementptr inbounds nuw %"struct.std::__cxx11::basic_string<char>::_Alloc_hider", ptr %4, i32 0, i32 0
  %6 = load ptr, ptr %5, align 8, !tbaa !271
  ret ptr %6
}

; Function Attrs: mustprogress nounwind uwtable
define available_externally noundef ptr @_ZNKSt7__cxx1112basic_stringIcSt11char_traitsIcESaIcEE5c_strEv(ptr noundef nonnull align 8 dereferenceable(32) %0) #3 align 2 {
  %2 = alloca ptr, align 8
  store ptr %0, ptr %2, align 8, !tbaa !29
  %3 = load ptr, ptr %2, align 8
  %4 = call noundef ptr @_ZNKSt7__cxx1112basic_stringIcSt11char_traitsIcESaIcEE7_M_dataEv(ptr noundef nonnull align 8 dereferenceable(32) %3)
  ret ptr %4
}

; Function Attrs: mustprogress nounwind uwtable
define noundef i32 @_ZN7rocksdb24EncodePersistentStatsKeyEmRKNSt7__cxx1112basic_stringIcSt11char_traitsIcESaIcEEEiPc(i64 noundef %0, ptr noundef nonnull align 8 dereferenceable(32) %1, i32 noundef %2, ptr noundef %3) #3 {
  %5 = alloca i64, align 8
  %6 = alloca ptr, align 8
  %7 = alloca i32, align 4
  %8 = alloca ptr, align 8
  %9 = alloca [11 x i8], align 1
  store i64 %0, ptr %5, align 8, !tbaa !4
  store ptr %1, ptr %6, align 8, !tbaa !29
  store i32 %2, ptr %7, align 4, !tbaa !105
  store ptr %3, ptr %8, align 8, !tbaa !31
  call void @llvm.lifetime.start.p0(i64 11, ptr %9) #4
  %10 = getelementptr inbounds [11 x i8], ptr %9, i64 0, i64 0
  %11 = load i64, ptr %5, align 8, !tbaa !4
  %12 = trunc i64 %11 to i32
  %13 = call i32 (ptr, i64, ptr, ...) @snprintf(ptr noundef %10, i64 noundef 11, ptr noundef @.str.47, i32 noundef %12) #4
  %14 = getelementptr inbounds [11 x i8], ptr %9, i64 0, i64 10
  store i8 0, ptr %14, align 1, !tbaa !106
  %15 = load ptr, ptr %8, align 8, !tbaa !31
  %16 = load i32, ptr %7, align 4, !tbaa !105
  %17 = sext i32 %16 to i64
  %18 = getelementptr inbounds [11 x i8], ptr %9, i64 0, i64 0
  %19 = load ptr, ptr %6, align 8, !tbaa !29
  %20 = call noundef ptr @_ZNKSt7__cxx1112basic_stringIcSt11char_traitsIcESaIcEE5c_strEv(ptr noundef nonnull align 8 dereferenceable(32) %19) #4
  %21 = call i32 (ptr, i64, ptr, ...) @snprintf(ptr noundef %15, i64 noundef %17, ptr noundef @.str.48, ptr noundef %18, ptr noundef %20) #4
  call void @llvm.lifetime.end.p0(i64 11, ptr %9) #4
  ret i32 %21
}