; Function Attrs: mustprogress nofree nounwind uwtable
define noundef i32 @_ZN7rocksdb24EncodePersistentStatsKeyEmRKNSt7__cxx1112basic_stringIcSt11char_traitsIcESaIcEEEiPc(i64 noundef %0, ptr noundef nonnull readonly align 8 captures(none) dereferenceable(32) %1, i32 noundef %2, ptr noundef writeonly captures(none) %3) local_unnamed_addr #7 {
  %5 = alloca [11 x i8], align 1
  call void @llvm.lifetime.start.p0(i64 11, ptr nonnull %5) #29
  %6 = trunc i64 %0 to i32
  %7 = call i32 (ptr, i64, ptr, ...) @snprintf(ptr noundef nonnull dereferenceable(1) %5, i64 noundef 11, ptr noundef nonnull @.str.47, i32 noundef %6) #29
  %8 = getelementptr inbounds nuw i8, ptr %5, i64 10
  store i8 0, ptr %8, align 1, !tbaa !17
  %9 = sext i32 %2 to i64
  %10 = load ptr, ptr %1, align 8, !tbaa !11
  %11 = call i32 (ptr, i64, ptr, ...) @snprintf(ptr noundef %3, i64 noundef %9, ptr noundef nonnull @.str.48, ptr noundef nonnull %5, ptr noundef %10) #29
  call void @llvm.lifetime.end.p0(i64 11, ptr nonnull %5) #29
  ret i32 %11
}